target datalayout = "e-m:e-p270:32:32-p271:32:32-p272:64:64-i64:64-i128:128-f80:128-n8:16:32:64-S128"
target triple = "x86_64-pc-linux-gnu"

%struct.LexState = type { i32, i32, i32, %struct.Token, %struct.Token, ptr, ptr, ptr, ptr, ptr, ptr, ptr, ptr }
%struct.Token = type { i32, %union.SemInfo }
%union.SemInfo = type { double }
%struct.Mbuffer = type { ptr, i64, i64 }

@.str = private unnamed_addr constant [5 x i8] c"_ENV\00", align 1

; Function Attrs: nounwind uwtable
define hidden void @luaX_setinput(ptr noundef %0, ptr noundef %1, ptr noundef %2, ptr noundef %3, i32 noundef %4) #0 {
  %6 = alloca ptr, align 8
  %7 = alloca ptr, align 8
  %8 = alloca ptr, align 8
  %9 = alloca ptr, align 8
  %10 = alloca i32, align 4
  store ptr %0, ptr %6, align 8, !tbaa !4
  store ptr %1, ptr %7, align 8, !tbaa !18
  store ptr %2, ptr %8, align 8, !tbaa !54
  store ptr %3, ptr %9, align 8, !tbaa !9
  store i32 %4, ptr %10, align 4, !tbaa !11
  %11 = load ptr, ptr %7, align 8, !tbaa !18
  %12 = getelementptr inbounds nuw %struct.LexState, ptr %11, i32 0, i32 3
  %13 = getelementptr inbounds nuw %struct.Token, ptr %12, i32 0, i32 0
  store i32 0, ptr %13, align 8, !tbaa !29
  %14 = load ptr, ptr %6, align 8, !tbaa !4
  %15 = load ptr, ptr %7, align 8, !tbaa !18
  %16 = getelementptr inbounds nuw %struct.LexState, ptr %15, i32 0, i32 6
  store ptr %14, ptr %16, align 8, !tbaa !21
  %17 = load i32, ptr %10, align 4, !tbaa !11
  %18 = load ptr, ptr %7, align 8, !tbaa !18
  %19 = getelementptr inbounds nuw %struct.LexState, ptr %18, i32 0, i32 0
  store i32 %17, ptr %19, align 8, !tbaa !55
  %20 = load ptr, ptr %7, align 8, !tbaa !18
  %21 = getelementptr inbounds nuw %struct.LexState, ptr %20, i32 0, i32 4
  %22 = getelementptr inbounds nuw %struct.Token, ptr %21, i32 0, i32 0
  store i32 288, ptr %22, align 8, !tbaa !56
  %23 = load ptr, ptr %8, align 8, !tbaa !54
  %24 = load ptr, ptr %7, align 8, !tbaa !18
  %25 = getelementptr inbounds nuw %struct.LexState, ptr %24, i32 0, i32 7
  store ptr %23, ptr %25, align 8, !tbaa !57
  %26 = load ptr, ptr %7, align 8, !tbaa !18
  %27 = getelementptr inbounds nuw %struct.LexState, ptr %26, i32 0, i32 5
  store ptr null, ptr %27, align 8, !tbaa !58
  %28 = load ptr, ptr %7, align 8, !tbaa !18
  %29 = getelementptr inbounds nuw %struct.LexState, ptr %28, i32 0, i32 1
  store i32 1, ptr %29, align 4, !tbaa !31
  %30 = load ptr, ptr %7, align 8, !tbaa !18
  %31 = getelementptr inbounds nuw %struct.LexState, ptr %30, i32 0, i32 2
  store i32 1, ptr %31, align 8, !tbaa !59
  %32 = load ptr, ptr %9, align 8, !tbaa !9
  %33 = load ptr, ptr %7, align 8, !tbaa !18
  %34 = getelementptr inbounds nuw %struct.LexState, ptr %33, i32 0, i32 11
  store ptr %32, ptr %34, align 8, !tbaa !30
  %35 = load ptr, ptr %6, align 8, !tbaa !4
  %36 = call ptr @luaS_newlstr(ptr noundef %35, ptr noundef @.str, i64 noundef 4)
  %37 = load ptr, ptr %7, align 8, !tbaa !18
  %38 = getelementptr inbounds nuw %struct.LexState, ptr %37, i32 0, i32 12
  store ptr %36, ptr %38, align 8, !tbaa !60
  %39 = load ptr, ptr %7, align 8, !tbaa !18
  %40 = getelementptr inbounds nuw %struct.LexState, ptr %39, i32 0, i32 6
  %41 = load ptr, ptr %40, align 8, !tbaa !21
  %42 = load ptr, ptr %7, align 8, !tbaa !18
  %43 = getelementptr inbounds nuw %struct.LexState, ptr %42, i32 0, i32 8
  %44 = load ptr, ptr %43, align 8, !tbaa !61
  %45 = getelementptr inbounds nuw %struct.Mbuffer, ptr %44, i32 0, i32 0
  %46 = load ptr, ptr %45, align 8, !tbaa !62
  %47 = load ptr, ptr %7, align 8, !tbaa !18
  %48 = getelementptr inbounds nuw %struct.LexState, ptr %47, i32 0, i32 8
  %49 = load ptr, ptr %48, align 8, !tbaa !61
  %50 = getelementptr inbounds nuw %struct.Mbuffer, ptr %49, i32 0, i32 2
  %51 = load i64, ptr %50, align 8, !tbaa !64
  %52 = mul i64 %51, 1
  %53 = call ptr @luaM_saferealloc_(ptr noundef %41, ptr noundef %46, i64 noundef %52, i64 noundef 32)
  %54 = load ptr, ptr %7, align 8, !tbaa !18
  %55 = getelementptr inbounds nuw %struct.LexState, ptr %54, i32 0, i32 8
  %56 = load ptr, ptr %55, align 8, !tbaa !61
  %57 = getelementptr inbounds nuw %struct.Mbuffer, ptr %56, i32 0, i32 0
  store ptr %53, ptr %57, align 8, !tbaa !62
  %58 = load ptr, ptr %7, align 8, !tbaa !18
  %59 = getelementptr inbounds nuw %struct.LexState, ptr %58, i32 0, i32 8
  %60 = load ptr, ptr %59, align 8, !tbaa !61
  %61 = getelementptr inbounds nuw %struct.Mbuffer, ptr %60, i32 0, i32 2
  store i64 32, ptr %61, align 8, !tbaa !64
  ret void
}