; Function Attrs: nounwind uwtable
define hidden void @luaX_setinput(ptr noundef %0, ptr noundef captures(none) initializes((0, 12), (16, 20), (32, 36), (48, 72), (96, 112)) %1, ptr noundef %2, ptr noundef %3, i32 noundef %4) local_unnamed_addr #0 {
  %6 = getelementptr inbounds nuw i8, ptr %1, i64 16
  store i32 0, ptr %6, align 8, !tbaa !24
  %7 = getelementptr inbounds nuw i8, ptr %1, i64 56
  store ptr %0, ptr %7, align 8, !tbaa !14
  store i32 %4, ptr %1, align 8, !tbaa !51
  %8 = getelementptr inbounds nuw i8, ptr %1, i64 32
  store i32 288, ptr %8, align 8, !tbaa !52
  %9 = getelementptr inbounds nuw i8, ptr %1, i64 64
  store ptr %2, ptr %9, align 8, !tbaa !53
  %10 = getelementptr inbounds nuw i8, ptr %1, i64 48
  store ptr null, ptr %10, align 8, !tbaa !54
  %11 = getelementptr inbounds nuw i8, ptr %1, i64 4
  store i32 1, ptr %11, align 4, !tbaa !26
  %12 = getelementptr inbounds nuw i8, ptr %1, i64 8
  store i32 1, ptr %12, align 8, !tbaa !55
  %13 = getelementptr inbounds nuw i8, ptr %1, i64 96
  store ptr %3, ptr %13, align 8, !tbaa !25
  %14 = tail call ptr @luaS_newlstr(ptr noundef %0, ptr noundef nonnull @.str, i64 noundef 4) #6
  %15 = getelementptr inbounds nuw i8, ptr %1, i64 104
  store ptr %14, ptr %15, align 8, !tbaa !56
  %16 = load ptr, ptr %7, align 8, !tbaa !14
  %17 = getelementptr inbounds nuw i8, ptr %1, i64 72
  %18 = load ptr, ptr %17, align 8, !tbaa !27
  %19 = load ptr, ptr %18, align 8, !tbaa !32
  %20 = getelementptr inbounds nuw i8, ptr %18, i64 16
  %21 = load i64, ptr %20, align 8, !tbaa !31
  %22 = tail call ptr @luaM_saferealloc_(ptr noundef %16, ptr noundef %19, i64 noundef %21, i64 noundef 32) #6
  %23 = load ptr, ptr %17, align 8, !tbaa !27
  store ptr %22, ptr %23, align 8, !tbaa !32
  %24 = getelementptr inbounds nuw i8, ptr %23, i64 16
  store i64 32, ptr %24, align 8, !tbaa !31
  ret void
}